; Function Attrs: nounwind sspstrong uwtable
define internal i64 @rb_reg_source(i64 noundef %0) #2 {
  %2 = inttoptr i64 %0 to ptr
  %3 = getelementptr inbounds nuw i8, ptr %2, i64 16
  %4 = load ptr, ptr %3, align 8, !tbaa !37
  %.not.i = icmp eq ptr %4, null
  br i1 %.not.i, label %13, label %5

5:                                                ; preds = %1
  %6 = getelementptr inbounds nuw i8, ptr %2, i64 24
  %7 = load i64, ptr %6, align 8, !tbaa !52
  %.not3.i = icmp eq i64 %7, 0
  br i1 %.not3.i, label %13, label %8

8:                                                ; preds = %5
  %9 = inttoptr i64 %7 to ptr
  %10 = load i64, ptr %9, align 8, !tbaa !34, !noalias !204
  %11 = and i64 %10, 8192
  %.not.i.i.i.i = icmp eq i64 %11, 0
  br i1 %.not.i.i.i.i, label %rb_reg_check.exit, label %RREGEXP_SRC_PTR.exit.i

RREGEXP_SRC_PTR.exit.i:                           ; preds = %8
  %12 = getelementptr inbounds nuw i8, ptr %9, i64 24
  %.sroa.2.0.copyload.i.i.i = load ptr, ptr %12, align 8
  %.not4.i = icmp eq ptr %.sroa.2.0.copyload.i.i.i, null
  br i1 %.not4.i, label %13, label %rb_reg_check.exit

13:                                               ; preds = %RREGEXP_SRC_PTR.exit.i, %5, %1
  %14 = load i64, ptr @rb_eTypeError, align 8, !tbaa !18
  tail call void (i64, ptr, ...) @rb_raise(i64 noundef %14, ptr noundef nonnull @.str.71) #30
  unreachable

rb_reg_check.exit:                                ; preds = %8, %RREGEXP_SRC_PTR.exit.i
  %15 = tail call i64 @rb_str_dup(i64 noundef %7) #29
  ret i64 %15
}